Certificate:
    Data:
        Version: 3 (0x2)
        Serial Number: 1 (0x1)
    Signature Algorithm: sha256WithRSAEncryption
        Issuer: C=RU, ST=SPB, L=SPB, O=GS, OU=GS Tech, CN=GS Authority
        Validity
            Not Before: Nov 24 12:46:36 2014 GMT
            Not After : Nov 15 12:46:36 2044 GMT
        Subject: C=RU, ST=SPB, O=GS, OU=GS Clients, CN=Bob
        Subject Public Key Info:
            Public Key Algorithm: rsaEncryption
                Public-Key: (2048 bit)
                Modulus:
                    00:c3:80:c3:3d:f7:8f:7b:da:26:b2:c5:ba:2e:6f:
                    9d:e9:f6:61:5c:99:58:b4:87:68:a2:13:26:df:62:
                    93:53:77:0d:98:fe:f0:5e:95:d0:e0:ee:c8:da:c9:
                    25:1a:0b:60:20:42:20:a5:27:09:d0:ee:f6:a2:5b:
                    4e:22:2b:6b:72:99:a6:a5:d7:ef:48:9c:ed:43:d7:
                    4a:b8:fb:c0:21:36:2e:cf:c1:b8:d2:14:fd:83:d5:
                    c2:d4:61:7c:bc:f0:ff:a9:5e:44:ea:b1:49:f6:5b:
                    22:9f:e1:dc:ea:4b:24:da:ed:09:90:16:58:94:eb:
                    11:bf:fc:42:09:f3:a4:6f:a5:f3:df:2f:b9:c5:3e:
                    b1:1d:36:4d:d8:2f:a0:9c:23:c4:e4:d8:cd:60:01:
                    de:fc:e7:8b:b9:16:8e:58:06:73:5a:d0:6e:f5:d5:
                    f7:94:c7:95:cc:5a:ba:03:97:04:6d:78:17:a3:90:
                    4e:55:1a:19:b1:f4:ae:82:42:a7:3e:0a:65:c4:4b:
                    98:cc:8e:3a:5e:39:9c:2d:63:ad:80:e1:ab:6c:5f:
                    9d:09:15:dd:aa:6a:66:e4:18:9f:fa:62:68:b4:08:
                    92:f0:a2:ec:cb:88:0a:ac:1d:ed:7d:46:86:e3:d0:
                    2c:12:ce:10:b5:d4:66:f6:80:ad:64:33:e0:ec:36:
                    3a:6b
                Exponent: 65537 (0x10001)
        X509v3 extensions:
            X509v3 Basic Constraints: 
                CA:FALSE
            Netscape Comment: 
                OpenSSL Generated Certificate
            X509v3 Subject Key Identifier: 
                F1:FE:28:7D:64:4F:B6:EE:FE:3F:DC:82:0F:70:23:BC:E0:BE:EF:68
            X509v3 Authority Key Identifier: 
                keyid:36:4B:34:AF:45:E5:16:03:A9:2A:5D:5E:60:27:62:90:05:AC:A6:79

    Signature Algorithm: sha256WithRSAEncryption
         49:23:28:7a:c0:31:bb:48:52:74:67:15:eb:79:39:1d:a8:35:
         92:c1:ec:30:7d:f4:41:cd:c5:cb:b7:f8:7f:d7:a7:ac:d2:90:
         61:ca:be:26:90:3e:37:97:db:aa:3f:30:1a:5c:a7:c4:32:6a:
         85:50:0d:d6:88:21:4c:f0:e6:8c:55:b3:31:45:de:bc:fd:19:
         6a:fb:32:1d:e2:68:4f:cd:4e:e4:5b:e4:c2:67:c9:a8:74:45:
         8d:6f:c1:0a:4d:96:ff:50:3e:80:6e:0e:f9:95:d4:a2:c9:8d:
         6b:b8:9f:94:51:fd:55:34:34:30:e3:32:93:88:c6:0d:0c:0a:
         eb:49:7b:07:0c:97:50:20:b9:9c:4c:6a:ed:66:53:5e:66:f5:
         66:a1:5e:9d:ea:13:90:4c:45:2b:ce:51:0c:94:ff:dd:88:5f:
         96:8a:59:15:3a:36:96:78:d5:ae:bd:01:a5:26:08:31:2c:35:
         10:35:59:2b:14:30:19:e7:3f:0b:8f:05:a6:26:b6:ee:15:e6:
         e2:35:83:cd:0a:5f:4b:42:0b:3c:fe:45:66:5f:4c:67:bc:a2:
         3e:7b:c2:be:05:a5:74:9f:9c:dc:65:37:21:6b:81:5f:ef:ba:
         9e:1f:6b:4a:db:ce:29:d3:65:c2:da:47:38:8b:00:30:cd:72:
         be:d3:16:c0
-----BEGIN CERTIFICATE-----
MIIDoDCCAoigAwIBAgIBATANBgkqhkiG9w0BAQsFADBfMQswCQYDVQQGEwJSVTEM
MAoGA1UECBMDU1BCMQwwCgYDVQQHEwNTUEIxCzAJBgNVBAoTAkdTMRAwDgYDVQQL
EwdHUyBUZWNoMRUwEwYDVQQDEwxHUyBBdXRob3JpdHkwHhcNMTQxMTI0MTI0NjM2
WhcNNDQxMTE1MTI0NjM2WjBLMQswCQYDVQQGEwJSVTEMMAoGA1UECBMDU1BCMQsw
CQYDVQQKEwJHUzETMBEGA1UECxMKR1MgQ2xpZW50czEMMAoGA1UEAxMDQm9iMIIB
IjANBgkqhkiG9w0BAQEFAAOCAQ8AMIIBCgKCAQEAw4DDPfePe9omssW6Lm+d6fZh
XJlYtIdoohMm32KTU3cNmP7wXpXQ4O7I2sklGgtgIEIgpScJ0O72oltOIitrcpmm
pdfvSJztQ9dKuPvAITYuz8G40hT9g9XC1GF8vPD/qV5E6rFJ9lsin+Hc6ksk2u0J
kBZYlOsRv/xCCfOkb6Xz3y+5xT6xHTZN2C+gnCPE5NjNYAHe/OeLuRaOWAZzWtBu
9dX3lMeVzFq6A5cEbXgXo5BOVRoZsfSugkKnPgplxEuYzI46XjmcLWOtgOGrbF+d
CRXdqmpm5Bif+mJotAiS8KLsy4gKrB3tfUaG49AsEs4QtdRm9oCtZDPg7DY6awID
AQABo3sweTAJBgNVHRMEAjAAMCwGCWCGSAGG+EIBDQQfFh1PcGVuU1NMIEdlbmVy
YXRlZCBDZXJ0aWZpY2F0ZTAdBgNVHQ4EFgQU8f4ofWRPtu7+P9yCD3AjvOC+72gw
HwYDVR0jBBgwFoAUNks0r0XlFgOpKl1eYCdikAWspnkwDQYJKoZIhvcNAQELBQAD
ggEBAEkjKHrAMbtIUnRnFet5OR2oNZLB7DB99EHNxcu3+H/Xp6zSkGHKviaQPjeX
26o/MBpcp8QyaoVQDdaIIUzw5oxVszFF3rz9GWr7Mh3iaE/NTuRb5MJnyah0RY1v
wQpNlv9QPoBuDvmV1KLJjWu4n5RR/VU0NDDjMpOIxg0MCutJewcMl1AguZxMau1m
U15m9WahXp3qE5BMRSvOUQyU/92IX5aKWRU6NpZ41a69AaUmCDEsNRA1WSsUMBnn
PwuPBaYmtu4V5uI1g80KX0tCCzz+RWZfTGe8oj57wr4FpXSfnNxlNyFrgV/vup4f
a0rbzinTZcLaRziLADDNcr7TFsA=
-----END CERTIFICATE-----
